; Function Attrs: mustprogress uwtable
define internal fastcc void @_ZN7doctest12_GLOBAL__N_112_GLOBAL__N_113hexEscapeCharERSoh(ptr noundef nonnull align 8 dereferenceable(8) %0, i8 noundef zeroext %1) unnamed_addr #8 {
  %3 = load ptr, ptr %0, align 8, !tbaa !31
  %4 = getelementptr i8, ptr %3, i64 -24
  %5 = load i64, ptr %4, align 8
  %6 = getelementptr inbounds i8, ptr %0, i64 %5
  %7 = getelementptr inbounds nuw i8, ptr %6, i64 24
  %8 = load i32, ptr %7, align 8, !tbaa !563
  %9 = tail call noundef nonnull align 8 dereferenceable(8) ptr @_ZSt16__ostream_insertIcSt11char_traitsIcEERSt13basic_ostreamIT_T0_ES6_PKS3_l(ptr noundef nonnull align 8 dereferenceable(8) %0, ptr noundef nonnull @.str.257, i64 noundef 2)
  %10 = load ptr, ptr %0, align 8, !tbaa !31
  %11 = getelementptr i8, ptr %10, i64 -24
  %12 = load i64, ptr %11, align 8
  %13 = getelementptr inbounds i8, ptr %0, i64 %12
  %14 = getelementptr inbounds nuw i8, ptr %13, i64 24
  %15 = load i32, ptr %14, align 8, !tbaa !563
  %16 = or i32 %15, 16384
  store i32 %16, ptr %14, align 4, !tbaa !564
  %17 = load i64, ptr %11, align 8
  %18 = getelementptr inbounds i8, ptr %0, i64 %17
  %19 = getelementptr inbounds nuw i8, ptr %18, i64 24
  %20 = load i32, ptr %19, align 8, !tbaa !563
  %21 = and i32 %20, -75
  %22 = or disjoint i32 %21, 8
  store i32 %22, ptr %19, align 4, !tbaa !564
  %23 = load i64, ptr %11, align 8
  %24 = getelementptr inbounds i8, ptr %0, i64 %23
  %25 = getelementptr inbounds nuw i8, ptr %24, i64 225
  %26 = load i8, ptr %25, align 1, !tbaa !565, !range !22, !noundef !23
  %27 = trunc nuw i8 %26 to i1
  br i1 %27, label %_ZStlsIcSt11char_traitsIcEERSt13basic_ostreamIT_T0_ES6_St8_SetfillIS3_E.exit, label %28

28:                                               ; preds = %2
  %29 = getelementptr inbounds nuw i8, ptr %24, i64 240
  %30 = load ptr, ptr %29, align 8, !tbaa !240
  %.not.i.i.i.i.i = icmp eq ptr %30, null
  br i1 %.not.i.i.i.i.i, label %31, label %_ZSt13__check_facetISt5ctypeIcEERKT_PS3_.exit.i.i.i.i

31:                                               ; preds = %28
  tail call void @_ZSt16__throw_bad_castv() #50
  unreachable

_ZSt13__check_facetISt5ctypeIcEERKT_PS3_.exit.i.i.i.i: ; preds = %28
  %32 = getelementptr inbounds nuw i8, ptr %30, i64 56
  %33 = load i8, ptr %32, align 8, !tbaa !246
  %.not.i1.i.i.i.i = icmp eq i8 %33, 0
  br i1 %.not.i1.i.i.i.i, label %34, label %_ZNKSt9basic_iosIcSt11char_traitsIcEE5widenEc.exit.i.i.i

34:                                               ; preds = %_ZSt13__check_facetISt5ctypeIcEERKT_PS3_.exit.i.i.i.i
  tail call void @_ZNKSt5ctypeIcE13_M_widen_initEv(ptr noundef nonnull align 8 dereferenceable(570) %30)
  %35 = load ptr, ptr %30, align 8, !tbaa !31
  %36 = getelementptr inbounds nuw i8, ptr %35, i64 48
  %37 = load ptr, ptr %36, align 8
  %38 = tail call noundef signext i8 %37(ptr noundef nonnull align 8 dereferenceable(570) %30, i8 noundef signext 32)
  %.pre.pre = load ptr, ptr %0, align 8, !tbaa !31
  br label %_ZNKSt9basic_iosIcSt11char_traitsIcEE5widenEc.exit.i.i.i

_ZNKSt9basic_iosIcSt11char_traitsIcEE5widenEc.exit.i.i.i: ; preds = %34, %_ZSt13__check_facetISt5ctypeIcEERKT_PS3_.exit.i.i.i.i
  %.pre = phi ptr [ %.pre.pre, %34 ], [ %10, %_ZSt13__check_facetISt5ctypeIcEERKT_PS3_.exit.i.i.i.i ]
  store i8 1, ptr %25, align 1, !tbaa !565
  br label %_ZStlsIcSt11char_traitsIcEERSt13basic_ostreamIT_T0_ES6_St8_SetfillIS3_E.exit

_ZStlsIcSt11char_traitsIcEERSt13basic_ostreamIT_T0_ES6_St8_SetfillIS3_E.exit: ; preds = %2, %_ZNKSt9basic_iosIcSt11char_traitsIcEE5widenEc.exit.i.i.i
  %39 = phi ptr [ %10, %2 ], [ %.pre, %_ZNKSt9basic_iosIcSt11char_traitsIcEE5widenEc.exit.i.i.i ]
  %40 = getelementptr inbounds nuw i8, ptr %24, i64 224
  store i8 48, ptr %40, align 8, !tbaa !566
  %41 = getelementptr i8, ptr %39, i64 -24
  %42 = load i64, ptr %41, align 8
  %43 = getelementptr inbounds i8, ptr %0, i64 %42
  %44 = getelementptr inbounds nuw i8, ptr %43, i64 16
  store i64 2, ptr %44, align 8, !tbaa !535
  %45 = zext i8 %1 to i32
  %46 = tail call noundef nonnull align 8 dereferenceable(8) ptr @_ZNSolsEi(ptr noundef nonnull align 8 dereferenceable(8) %0, i32 noundef %45)
  %47 = load ptr, ptr %0, align 8, !tbaa !31
  %48 = getelementptr i8, ptr %47, i64 -24
  %49 = load i64, ptr %48, align 8
  %50 = getelementptr inbounds i8, ptr %0, i64 %49
  %51 = getelementptr inbounds nuw i8, ptr %50, i64 24
  store i32 %8, ptr %51, align 8, !tbaa !563
  ret void
}